; ModuleID = 'source-C-CXX/6/53.c'
source_filename = "source-C-CXX/6/53.c"
target datalayout = "e-m:e-p270:32:32-p271:32:32-p272:64:64-i64:64-f80:128-n8:16:32:64-S128"
target triple = "x86_64-pc-linux-gnu"

@.str = private unnamed_addr constant [3 x i8] c"%s\00", align 1

; Function Attrs: nofree nounwind sspstrong uwtable
define dso_local void @main() local_unnamed_addr #0 {
  %1 = alloca [100 x i8], align 16
  %2 = alloca [100 x i8], align 16
  %3 = alloca [100 x i8], align 16
  %4 = getelementptr inbounds [100 x i8], [100 x i8]* %1, i64 0, i64 0
  call void @llvm.lifetime.start.p0i8(i64 100, i8* nonnull %4) #5
  %5 = getelementptr inbounds [100 x i8], [100 x i8]* %2, i64 0, i64 0
  call void @llvm.lifetime.start.p0i8(i64 100, i8* nonnull %5) #5
  %6 = getelementptr inbounds [100 x i8], [100 x i8]* %3, i64 0, i64 0
  call void @llvm.lifetime.start.p0i8(i64 100, i8* nonnull %6) #5
  %7 = call i32 (i8*, ...) @__isoc99_scanf(i8* getelementptr inbounds ([3 x i8], [3 x i8]* @.str, i64 0, i64 0), i8* nonnull %4)
  %8 = call i32 (i8*, ...) @__isoc99_scanf(i8* getelementptr inbounds ([3 x i8], [3 x i8]* @.str, i64 0, i64 0), i8* nonnull %5)
  %9 = call i32 (i8*, ...) @__isoc99_scanf(i8* getelementptr inbounds ([3 x i8], [3 x i8]* @.str, i64 0, i64 0), i8* nonnull %6)
  %10 = call i64 @strlen(i8* noundef nonnull %4) #6
  %11 = trunc i64 %10 to i32
  %12 = call i64 @strlen(i8* noundef nonnull %5) #6
  %13 = trunc i64 %12 to i32
  %14 = load i8, i8* %5, align 16
  %15 = shl i64 %12, 32
  %16 = add i64 %15, -4294967296
  %17 = ashr exact i64 %16, 32
  %18 = getelementptr inbounds [100 x i8], [100 x i8]* %2, i64 0, i64 %17
  %19 = icmp sgt i32 %11, 0
  br i1 %19, label %20, label %90

20:                                               ; preds = %0
  %21 = icmp sgt i32 %13, 0
  %22 = and i64 %10, 4294967295
  br i1 %21, label %23, label %40

23:                                               ; preds = %20, %37
  %24 = phi i64 [ %38, %37 ], [ 0, %20 ]
  %25 = getelementptr inbounds [100 x i8], [100 x i8]* %1, i64 0, i64 %24
  %26 = load i8, i8* %25, align 1, !tbaa !5
  %27 = icmp eq i8 %26, %14
  br i1 %27, label %28, label %37

28:                                               ; preds = %23
  %29 = trunc i64 %24 to i32
  %30 = add nsw i32 %29, %13
  %31 = add nsw i32 %30, -1
  %32 = sext i32 %31 to i64
  %33 = getelementptr inbounds [100 x i8], [100 x i8]* %1, i64 0, i64 %32
  %34 = load i8, i8* %33, align 1, !tbaa !5
  %35 = load i8, i8* %18, align 1, !tbaa !5
  %36 = icmp eq i8 %34, %35
  br i1 %36, label %54, label %37

37:                                               ; preds = %28, %23
  %38 = add nuw nsw i64 %24, 1
  %39 = icmp eq i64 %38, %22
  br i1 %39, label %86, label %23, !llvm.loop !8

40:                                               ; preds = %20, %83
  %41 = phi i64 [ %84, %83 ], [ 0, %20 ]
  %42 = getelementptr inbounds [100 x i8], [100 x i8]* %1, i64 0, i64 %41
  %43 = load i8, i8* %42, align 1, !tbaa !5
  %44 = icmp eq i8 %43, %14
  br i1 %44, label %45, label %83

45:                                               ; preds = %40
  %46 = trunc i64 %41 to i32
  %47 = add nsw i32 %46, %13
  %48 = add nsw i32 %47, -1
  %49 = sext i32 %48 to i64
  %50 = getelementptr inbounds [100 x i8], [100 x i8]* %1, i64 0, i64 %49
  %51 = load i8, i8* %50, align 1, !tbaa !5
  %52 = load i8, i8* %18, align 1, !tbaa !5
  %53 = icmp eq i8 %51, %52
  br i1 %53, label %54, label %83

54:                                               ; preds = %45, %28
  %55 = phi i64 [ %24, %28 ], [ %41, %45 ]
  %56 = phi i32 [ %30, %28 ], [ %47, %45 ]
  %57 = trunc i64 %55 to i32
  %58 = icmp eq i32 %57, 0
  br i1 %58, label %69, label %59

59:                                               ; preds = %54
  %60 = and i64 %55, 4294967295
  br label %61

61:                                               ; preds = %59, %61
  %62 = phi i64 [ 0, %59 ], [ %67, %61 ]
  %63 = getelementptr inbounds [100 x i8], [100 x i8]* %1, i64 0, i64 %62
  %64 = load i8, i8* %63, align 1, !tbaa !5
  %65 = sext i8 %64 to i32
  %66 = call i32 @putchar(i32 %65)
  %67 = add nuw nsw i64 %62, 1
  %68 = icmp eq i64 %67, %60
  br i1 %68, label %69, label %61, !llvm.loop !10

69:                                               ; preds = %61, %54
  %70 = call i32 (i8*, ...) @printf(i8* nonnull dereferenceable(1) getelementptr inbounds ([3 x i8], [3 x i8]* @.str, i64 0, i64 0), i8* nonnull %6)
  %71 = icmp slt i32 %56, %11
  br i1 %71, label %72, label %90

72:                                               ; preds = %69
  %73 = sext i32 %56 to i64
  br label %74

74:                                               ; preds = %72, %74
  %75 = phi i64 [ %73, %72 ], [ %80, %74 ]
  %76 = getelementptr inbounds [100 x i8], [100 x i8]* %1, i64 0, i64 %75
  %77 = load i8, i8* %76, align 1, !tbaa !5
  %78 = sext i8 %77 to i32
  %79 = call i32 @putchar(i32 %78)
  %80 = add nsw i64 %75, 1
  %81 = trunc i64 %80 to i32
  %82 = icmp eq i32 %81, %11
  br i1 %82, label %90, label %74, !llvm.loop !11

83:                                               ; preds = %40, %45
  %84 = add nuw nsw i64 %41, 1
  %85 = icmp eq i64 %84, %22
  br i1 %85, label %88, label %40, !llvm.loop !8

86:                                               ; preds = %37
  %87 = trunc i64 %10 to i32
  br label %90

88:                                               ; preds = %83
  %89 = trunc i64 %10 to i32
  br label %90

90:                                               ; preds = %74, %88, %86, %0, %69
  %91 = phi i32 [ %57, %69 ], [ 0, %0 ], [ %87, %86 ], [ %89, %88 ], [ %57, %74 ]
  %92 = icmp eq i32 %91, %11
  br i1 %92, label %93, label %95

93:                                               ; preds = %90
  %94 = call i32 (i8*, ...) @printf(i8* nonnull dereferenceable(1) getelementptr inbounds ([3 x i8], [3 x i8]* @.str, i64 0, i64 0), i8* nonnull %4)
  br label %95

95:                                               ; preds = %93, %90
  call void @llvm.lifetime.end.p0i8(i64 100, i8* nonnull %6) #5
  call void @llvm.lifetime.end.p0i8(i64 100, i8* nonnull %5) #5
  call void @llvm.lifetime.end.p0i8(i64 100, i8* nonnull %4) #5
  ret void
}

; Function Attrs: argmemonly mustprogress nofree nosync nounwind willreturn
declare void @llvm.lifetime.start.p0i8(i64 immarg, i8* nocapture) #1

; Function Attrs: nofree nounwind
declare noundef i32 @__isoc99_scanf(i8* nocapture noundef readonly, ...) local_unnamed_addr #2

; Function Attrs: argmemonly mustprogress nofree nounwind readonly willreturn
declare i64 @strlen(i8* nocapture) local_unnamed_addr #3

; Function Attrs: nofree nounwind
declare noundef i32 @printf(i8* nocapture noundef readonly, ...) local_unnamed_addr #2

; Function Attrs: argmemonly mustprogress nofree nosync nounwind willreturn
declare void @llvm.lifetime.end.p0i8(i64 immarg, i8* nocapture) #1

; Function Attrs: nofree nounwind
declare noundef i32 @putchar(i32 noundef) local_unnamed_addr #4


!llvm.module.flags = !{!0, !1, !2, !3}
!llvm.ident = !{!4}

!0 = !{i32 1, !"wchar_size", i32 4}
!1 = !{i32 7, !"PIC Level", i32 2}
!2 = !{i32 7, !"PIE Level", i32 2}
!3 = !{i32 7, !"uwtable", i32 1}
!4 = !{!"clang version 13.0.0"}
!5 = !{!6, !6, i64 0}
!6 = !{!"omnipotent char", !7, i64 0}
!7 = !{!"Simple C/C++ TBAA"}
!8 = distinct !{!8, !9}
!9 = !{!"llvm.loop.mustprogress"}
!10 = distinct !{!10, !9}
!11 = distinct !{!11, !9}
